target datalayout = "e-m:e-p270:32:32-p271:32:32-p272:64:64-i64:64-i128:128-f80:128-n8:16:32:64-S128"
target triple = "x86_64-pc-linux-gnu"

%struct.KINMemRec = type { double, ptr, ptr, double, double, i32, i32, i64, i64, i64, i64, i32, i32, i32, i32, i32, i32, i32, i32, i32, double, double, double, double, double, double, double, double, double, i32, double, i64, i64, i64, i64, i64, i64, i64, ptr, ptr, ptr, ptr, ptr, ptr, ptr, ptr, ptr, ptr, ptr, ptr, ptr, ptr, ptr, ptr, ptr, ptr, i64, i32, i32, i64, i64, i64, i64, ptr, ptr, ptr, ptr, i32, ptr, double, double, double, double, double, i32, double, double, double, i32, ptr, ptr, ptr, ptr, ptr, ptr }

@.str.34 = private unnamed_addr constant [10 x i8] c"\0A[%s] %s\0A\00", align 1
@.str.35 = private unnamed_addr constant [7 x i8] c"   %s\0A\00", align 1

; Function Attrs: nounwind uwtable
define void @KINInfoHandler(ptr noundef %0, ptr noundef %1, ptr noundef %2, ptr noundef %3) #0 {
  %5 = alloca ptr, align 8
  %6 = alloca ptr, align 8
  %7 = alloca ptr, align 8
  %8 = alloca ptr, align 8
  %9 = alloca ptr, align 8
  store ptr %0, ptr %5, align 8, !tbaa !71
  store ptr %1, ptr %6, align 8, !tbaa !71
  store ptr %2, ptr %7, align 8, !tbaa !71
  store ptr %3, ptr %8, align 8, !tbaa !73
  call void @llvm.lifetime.start.p0(i64 8, ptr %9) #8
  %10 = load ptr, ptr %8, align 8, !tbaa !73
  store ptr %10, ptr %9, align 8, !tbaa !3
  %11 = load ptr, ptr %9, align 8, !tbaa !3
  %12 = getelementptr inbounds nuw %struct.KINMemRec, ptr %11, i32 0, i32 84
  %13 = load ptr, ptr %12, align 8, !tbaa !41
  %14 = icmp ne ptr %13, null
  br i1 %14, label %15, label %27

15:                                               ; preds = %4
  %16 = load ptr, ptr %9, align 8, !tbaa !3
  %17 = getelementptr inbounds nuw %struct.KINMemRec, ptr %16, i32 0, i32 84
  %18 = load ptr, ptr %17, align 8, !tbaa !41
  %19 = load ptr, ptr %5, align 8, !tbaa !71
  %20 = load ptr, ptr %6, align 8, !tbaa !71
  %21 = call i32 (ptr, ptr, ...) @fprintf(ptr noundef %18, ptr noundef @.str.34, ptr noundef %19, ptr noundef %20) #8
  %22 = load ptr, ptr %9, align 8, !tbaa !3
  %23 = getelementptr inbounds nuw %struct.KINMemRec, ptr %22, i32 0, i32 84
  %24 = load ptr, ptr %23, align 8, !tbaa !41
  %25 = load ptr, ptr %7, align 8, !tbaa !71
  %26 = call i32 (ptr, ptr, ...) @fprintf(ptr noundef %24, ptr noundef @.str.35, ptr noundef %25) #8
  br label %27

27:                                               ; preds = %15, %4
  call void @llvm.lifetime.end.p0(i64 8, ptr %9) #8
  ret void
}