; Function Attrs: nofree nounwind uwtable
define void @KINInfoHandler(ptr noundef %0, ptr noundef %1, ptr noundef %2, ptr noundef readonly captures(none) %3) #4 {
  %5 = getelementptr inbounds nuw i8, ptr %3, i64 624
  %6 = load ptr, ptr %5, align 8, !tbaa !21
  %.not = icmp eq ptr %6, null
  br i1 %.not, label %11, label %7

7:                                                ; preds = %4
  %8 = tail call i32 (ptr, ptr, ...) @fprintf(ptr noundef nonnull %6, ptr noundef nonnull @.str.34, ptr noundef %0, ptr noundef %1) #14
  %9 = load ptr, ptr %5, align 8, !tbaa !21
  %10 = tail call i32 (ptr, ptr, ...) @fprintf(ptr noundef %9, ptr noundef nonnull @.str.35, ptr noundef %2) #14
  br label %11

11:                                               ; preds = %7, %4
  ret void
}